; Function Attrs: nounwind uwtable
define noundef ptr @lv_fragment_manager_create(ptr noundef %0) local_unnamed_addr #0 {
  %2 = tail call ptr @lv_malloc_zeroed(i64 noundef 56) #3
  store ptr %0, ptr %2, align 8, !tbaa !3
  %3 = getelementptr inbounds nuw i8, ptr %2, i64 8
  tail call void @lv_ll_init(ptr noundef nonnull %3, i32 noundef 40) #3
  %4 = getelementptr inbounds nuw i8, ptr %2, i64 32
  tail call void @lv_ll_init(ptr noundef nonnull %4, i32 noundef 8) #3
  ret ptr %2
}